target datalayout = "e-m:e-p270:32:32-p271:32:32-p272:64:64-i64:64-i128:128-f80:128-n8:16:32:64-S128"
target triple = "x86_64-pc-linux-gnu"

%struct.evp_cipher_ctx_st = type { ptr, ptr, ptr, i32, i32, i32, [16 x i8], [16 x i8], [32 x i8], i32, i32, i32, i32, [32 x i8] }
%struct.evp_cipher_st = type { i32, i32, i32, i32, i32, i32, ptr, ptr, ptr, ptr, ptr }

@.str = private unnamed_addr constant [126 x i8] c"generated/home/dtcxzyw/WorkSpace/Projects/compilers/llvm-opt-benchmark/bench/libquic/libquic/boringssl/crypto/cipher/cipher.c\00", align 1

; Function Attrs: nounwind uwtable
define hidden i32 @EVP_CIPHER_CTX_ctrl(ptr noundef %0, i32 noundef %1, i32 noundef %2, ptr noundef %3) #0 {
  %5 = alloca i32, align 4
  %6 = alloca ptr, align 8
  %7 = alloca i32, align 4
  %8 = alloca i32, align 4
  %9 = alloca ptr, align 8
  %10 = alloca i32, align 4
  %11 = alloca i32, align 4
  store ptr %0, ptr %6, align 8, !tbaa !10
  store i32 %1, ptr %7, align 4, !tbaa !6
  store i32 %2, ptr %8, align 4, !tbaa !6
  store ptr %3, ptr %9, align 8, !tbaa !37
  call void @llvm.lifetime.start.p0(i64 4, ptr %10) #7
  %12 = load ptr, ptr %6, align 8, !tbaa !10
  %13 = getelementptr inbounds nuw %struct.evp_cipher_ctx_st, ptr %12, i32 0, i32 0
  %14 = load ptr, ptr %13, align 8, !tbaa !13
  %15 = icmp ne ptr %14, null
  br i1 %15, label %17, label %16

16:                                               ; preds = %4
  call void @ERR_put_error(i32 noundef 30, i32 noundef 0, i32 noundef 114, ptr noundef @.str, i32 noundef 544)
  store i32 0, ptr %5, align 4
  store i32 1, ptr %11, align 4
  br label %41

17:                                               ; preds = %4
  %18 = load ptr, ptr %6, align 8, !tbaa !10
  %19 = getelementptr inbounds nuw %struct.evp_cipher_ctx_st, ptr %18, i32 0, i32 0
  %20 = load ptr, ptr %19, align 8, !tbaa !13
  %21 = getelementptr inbounds nuw %struct.evp_cipher_st, ptr %20, i32 0, i32 10
  %22 = load ptr, ptr %21, align 8, !tbaa !21
  %23 = icmp ne ptr %22, null
  br i1 %23, label %25, label %24

24:                                               ; preds = %17
  call void @ERR_put_error(i32 noundef 30, i32 noundef 0, i32 noundef 104, ptr noundef @.str, i32 noundef 549)
  store i32 0, ptr %5, align 4
  store i32 1, ptr %11, align 4
  br label %41

25:                                               ; preds = %17
  %26 = load ptr, ptr %6, align 8, !tbaa !10
  %27 = getelementptr inbounds nuw %struct.evp_cipher_ctx_st, ptr %26, i32 0, i32 0
  %28 = load ptr, ptr %27, align 8, !tbaa !13
  %29 = getelementptr inbounds nuw %struct.evp_cipher_st, ptr %28, i32 0, i32 10
  %30 = load ptr, ptr %29, align 8, !tbaa !21
  %31 = load ptr, ptr %6, align 8, !tbaa !10
  %32 = load i32, ptr %7, align 4, !tbaa !6
  %33 = load i32, ptr %8, align 4, !tbaa !6
  %34 = load ptr, ptr %9, align 8, !tbaa !37
  %35 = call i32 %30(ptr noundef %31, i32 noundef %32, i32 noundef %33, ptr noundef %34)
  store i32 %35, ptr %10, align 4, !tbaa !6
  %36 = load i32, ptr %10, align 4, !tbaa !6
  %37 = icmp eq i32 %36, -1
  br i1 %37, label %38, label %39

38:                                               ; preds = %25
  call void @ERR_put_error(i32 noundef 30, i32 noundef 0, i32 noundef 105, ptr noundef @.str, i32 noundef 555)
  store i32 0, ptr %5, align 4
  store i32 1, ptr %11, align 4
  br label %41

39:                                               ; preds = %25
  %40 = load i32, ptr %10, align 4, !tbaa !6
  store i32 %40, ptr %5, align 4
  store i32 1, ptr %11, align 4
  br label %41

41:                                               ; preds = %39, %38, %24, %16
  call void @llvm.lifetime.end.p0(i64 4, ptr %10) #7
  %42 = load i32, ptr %5, align 4
  ret i32 %42
}