; Function Attrs: nounwind uwtable
define hidden range(i32 0, -1) i32 @EVP_CIPHER_CTX_ctrl(ptr noundef %0, i32 noundef %1, i32 noundef %2, ptr noundef %3) local_unnamed_addr #0 {
  %5 = load ptr, ptr %0, align 8, !tbaa !6
  %.not = icmp eq ptr %5, null
  br i1 %.not, label %6, label %7

6:                                                ; preds = %4
  tail call void @ERR_put_error(i32 noundef 30, i32 noundef 0, i32 noundef 114, ptr noundef nonnull @.str, i32 noundef 544) #14
  br label %15

7:                                                ; preds = %4
  %8 = getelementptr inbounds nuw i8, ptr %5, i64 56
  %9 = load ptr, ptr %8, align 8, !tbaa !18
  %.not12 = icmp eq ptr %9, null
  br i1 %.not12, label %10, label %11

10:                                               ; preds = %7
  tail call void @ERR_put_error(i32 noundef 30, i32 noundef 0, i32 noundef 104, ptr noundef nonnull @.str, i32 noundef 549) #14
  br label %15

11:                                               ; preds = %7
  %12 = tail call i32 %9(ptr noundef nonnull %0, i32 noundef %1, i32 noundef %2, ptr noundef %3) #14
  %13 = icmp eq i32 %12, -1
  br i1 %13, label %14, label %15

14:                                               ; preds = %11
  tail call void @ERR_put_error(i32 noundef 30, i32 noundef 0, i32 noundef 105, ptr noundef nonnull @.str, i32 noundef 555) #14
  br label %15

15:                                               ; preds = %11, %14, %10, %6
  %.0 = phi i32 [ 0, %14 ], [ 0, %10 ], [ 0, %6 ], [ %12, %11 ]
  ret i32 %.0
}